; Function Attrs: mustprogress nounwind uwtable
define internal fastcc noundef ptr @_ZN5clang15StmtVisitorBaseISt11add_pointerN12_GLOBAL__N_117ScalarExprEmitterEPN4llvm5ValueEJEE27VisitCompoundAssignOperatorEPNS_22CompoundAssignOperatorE(ptr noundef nonnull readonly align 1 captures(none) dereferenceable(1) %0, ptr noundef %1) unnamed_addr #0 align 2 {
  %3 = load ptr, ptr %0, align 8
  tail call void @_ZN5clang7CodeGen15CodeGenFunction16ErrorUnsupportedEPKNS_4StmtEPKc(ptr noundef nonnull align 8 dereferenceable(6488) %3, ptr noundef %1, ptr noundef nonnull @.str.32) #19
  %4 = getelementptr inbounds nuw i8, ptr %1, i64 8
  %.sroa.0.0.copyload.i.i.i = load i64, ptr %4, align 8
  %5 = and i64 %.sroa.0.0.copyload.i.i.i, -16
  %6 = inttoptr i64 %5 to ptr
  %7 = load ptr, ptr %6, align 16
  %8 = getelementptr inbounds nuw i8, ptr %7, i64 8
  %.sroa.0.0.copyload.i.i.i.i.i.i.i.i = load i64, ptr %8, align 8
  %9 = and i64 %.sroa.0.0.copyload.i.i.i.i.i.i.i.i, -16
  %10 = inttoptr i64 %9 to ptr
  %11 = load ptr, ptr %10, align 16
  %12 = getelementptr inbounds nuw i8, ptr %11, i64 16
  %13 = load i8, ptr %12, align 16
  %14 = icmp ne i8 %13, 13
  %.not5.i.i.i.i = icmp eq ptr %11, null
  %.not.i.i.i.i = or i1 %.not5.i.i.i.i, %14
  br i1 %.not.i.i.i.i, label %_ZNK5clang4Type10isVoidTypeEv.exit.thread.i.i, label %_ZNK5clang4Type10isVoidTypeEv.exit.i.i

_ZNK5clang4Type10isVoidTypeEv.exit.i.i:           ; preds = %2
  %15 = load i32, ptr %12, align 16
  %16 = and i32 %15, 267911168
  %17 = icmp eq i32 %16, 224395264
  br i1 %17, label %_ZN5clang15StmtVisitorBaseISt11add_pointerN12_GLOBAL__N_117ScalarExprEmitterEPN4llvm5ValueEJEE19VisitBinaryOperatorEPNS_14BinaryOperatorE.exit, label %_ZNK5clang4Type10isVoidTypeEv.exit.thread.i.i

_ZNK5clang4Type10isVoidTypeEv.exit.thread.i.i:    ; preds = %_ZNK5clang4Type10isVoidTypeEv.exit.i.i, %2
  %18 = load ptr, ptr %0, align 8
  %19 = tail call noundef ptr @_ZN5clang7CodeGen15CodeGenFunction11ConvertTypeENS_8QualTypeE(ptr noundef nonnull align 8 dereferenceable(6488) %18, i64 %.sroa.0.0.copyload.i.i.i) #19
  %20 = tail call noundef ptr @_ZN4llvm10UndefValue3getEPNS_4TypeE(ptr noundef %19) #19
  br label %_ZN5clang15StmtVisitorBaseISt11add_pointerN12_GLOBAL__N_117ScalarExprEmitterEPN4llvm5ValueEJEE19VisitBinaryOperatorEPNS_14BinaryOperatorE.exit

_ZN5clang15StmtVisitorBaseISt11add_pointerN12_GLOBAL__N_117ScalarExprEmitterEPN4llvm5ValueEJEE19VisitBinaryOperatorEPNS_14BinaryOperatorE.exit: ; preds = %_ZNK5clang4Type10isVoidTypeEv.exit.i.i, %_ZNK5clang4Type10isVoidTypeEv.exit.thread.i.i
  %.0.i.i = phi ptr [ %20, %_ZNK5clang4Type10isVoidTypeEv.exit.thread.i.i ], [ null, %_ZNK5clang4Type10isVoidTypeEv.exit.i.i ]
  ret ptr %.0.i.i
}